; ModuleID = '33/3216.c'
source_filename = "33/3216.c"
target datalayout = "e-m:e-p270:32:32-p271:32:32-p272:64:64-i64:64-f80:128-n8:16:32:64-S128"
target triple = "x86_64-pc-linux-gnu"

@.str = private unnamed_addr constant [3 x i8] c"%d\00", align 1
@.str.1 = private unnamed_addr constant [3 x i8] c"%s\00", align 1
@.str.2 = private unnamed_addr constant [4 x i8] c"%s\0A\00", align 1

; Function Attrs: noinline nounwind uwtable
define dso_local i32 @main() #0 {
  %1 = alloca i32, align 4
  %2 = alloca i32, align 4
  %3 = alloca i32, align 4
  %4 = alloca i32, align 4
  %5 = alloca [1000 x [300 x i8]], align 16
  store i32 0, i32* %1, align 4
  %6 = call i32 (i8*, ...) @__isoc99_scanf(i8* getelementptr inbounds ([3 x i8], [3 x i8]* @.str, i64 0, i64 0), i32* %2)
  store i32 0, i32* %3, align 4
  br label %7

7:                                                ; preds = %103, %0
  %8 = load i32, i32* %3, align 4
  %9 = load i32, i32* %2, align 4
  %10 = icmp slt i32 %8, %9
  br i1 %10, label %11, label %106

11:                                               ; preds = %7
  %12 = load i32, i32* %3, align 4
  %13 = sext i32 %12 to i64
  %14 = getelementptr inbounds [1000 x [300 x i8]], [1000 x [300 x i8]]* %5, i64 0, i64 %13
  %15 = getelementptr inbounds [300 x i8], [300 x i8]* %14, i64 0, i64 0
  %16 = call i32 (i8*, ...) @__isoc99_scanf(i8* getelementptr inbounds ([3 x i8], [3 x i8]* @.str.1, i64 0, i64 0), i8* %15)
  store i32 0, i32* %4, align 4
  br label %17

17:                                               ; preds = %99, %11
  %18 = load i32, i32* %3, align 4
  %19 = sext i32 %18 to i64
  %20 = getelementptr inbounds [1000 x [300 x i8]], [1000 x [300 x i8]]* %5, i64 0, i64 %19
  %21 = load i32, i32* %4, align 4
  %22 = sext i32 %21 to i64
  %23 = getelementptr inbounds [300 x i8], [300 x i8]* %20, i64 0, i64 %22
  %24 = load i8, i8* %23, align 1
  %25 = sext i8 %24 to i32
  %26 = icmp ne i32 %25, 0
  br i1 %26, label %27, label %102

27:                                               ; preds = %17
  %28 = load i32, i32* %3, align 4
  %29 = sext i32 %28 to i64
  %30 = getelementptr inbounds [1000 x [300 x i8]], [1000 x [300 x i8]]* %5, i64 0, i64 %29
  %31 = load i32, i32* %4, align 4
  %32 = sext i32 %31 to i64
  %33 = getelementptr inbounds [300 x i8], [300 x i8]* %30, i64 0, i64 %32
  %34 = load i8, i8* %33, align 1
  %35 = sext i8 %34 to i32
  %36 = icmp eq i32 %35, 65
  br i1 %36, label %37, label %44

37:                                               ; preds = %27
  %38 = load i32, i32* %3, align 4
  %39 = sext i32 %38 to i64
  %40 = getelementptr inbounds [1000 x [300 x i8]], [1000 x [300 x i8]]* %5, i64 0, i64 %39
  %41 = load i32, i32* %4, align 4
  %42 = sext i32 %41 to i64
  %43 = getelementptr inbounds [300 x i8], [300 x i8]* %40, i64 0, i64 %42
  store i8 84, i8* %43, align 1
  br label %98

44:                                               ; preds = %27
  %45 = load i32, i32* %3, align 4
  %46 = sext i32 %45 to i64
  %47 = getelementptr inbounds [1000 x [300 x i8]], [1000 x [300 x i8]]* %5, i64 0, i64 %46
  %48 = load i32, i32* %4, align 4
  %49 = sext i32 %48 to i64
  %50 = getelementptr inbounds [300 x i8], [300 x i8]* %47, i64 0, i64 %49
  %51 = load i8, i8* %50, align 1
  %52 = sext i8 %51 to i32
  %53 = icmp eq i32 %52, 84
  br i1 %53, label %54, label %61

54:                                               ; preds = %44
  %55 = load i32, i32* %3, align 4
  %56 = sext i32 %55 to i64
  %57 = getelementptr inbounds [1000 x [300 x i8]], [1000 x [300 x i8]]* %5, i64 0, i64 %56
  %58 = load i32, i32* %4, align 4
  %59 = sext i32 %58 to i64
  %60 = getelementptr inbounds [300 x i8], [300 x i8]* %57, i64 0, i64 %59
  store i8 65, i8* %60, align 1
  br label %97

61:                                               ; preds = %44
  %62 = load i32, i32* %3, align 4
  %63 = sext i32 %62 to i64
  %64 = getelementptr inbounds [1000 x [300 x i8]], [1000 x [300 x i8]]* %5, i64 0, i64 %63
  %65 = load i32, i32* %4, align 4
  %66 = sext i32 %65 to i64
  %67 = getelementptr inbounds [300 x i8], [300 x i8]* %64, i64 0, i64 %66
  %68 = load i8, i8* %67, align 1
  %69 = sext i8 %68 to i32
  %70 = icmp eq i32 %69, 71
  br i1 %70, label %71, label %78

71:                                               ; preds = %61
  %72 = load i32, i32* %3, align 4
  %73 = sext i32 %72 to i64
  %74 = getelementptr inbounds [1000 x [300 x i8]], [1000 x [300 x i8]]* %5, i64 0, i64 %73
  %75 = load i32, i32* %4, align 4
  %76 = sext i32 %75 to i64
  %77 = getelementptr inbounds [300 x i8], [300 x i8]* %74, i64 0, i64 %76
  store i8 67, i8* %77, align 1
  br label %96

78:                                               ; preds = %61
  %79 = load i32, i32* %3, align 4
  %80 = sext i32 %79 to i64
  %81 = getelementptr inbounds [1000 x [300 x i8]], [1000 x [300 x i8]]* %5, i64 0, i64 %80
  %82 = load i32, i32* %4, align 4
  %83 = sext i32 %82 to i64
  %84 = getelementptr inbounds [300 x i8], [300 x i8]* %81, i64 0, i64 %83
  %85 = load i8, i8* %84, align 1
  %86 = sext i8 %85 to i32
  %87 = icmp eq i32 %86, 67
  br i1 %87, label %88, label %95

88:                                               ; preds = %78
  %89 = load i32, i32* %3, align 4
  %90 = sext i32 %89 to i64
  %91 = getelementptr inbounds [1000 x [300 x i8]], [1000 x [300 x i8]]* %5, i64 0, i64 %90
  %92 = load i32, i32* %4, align 4
  %93 = sext i32 %92 to i64
  %94 = getelementptr inbounds [300 x i8], [300 x i8]* %91, i64 0, i64 %93
  store i8 71, i8* %94, align 1
  br label %95

95:                                               ; preds = %88, %78
  br label %96

96:                                               ; preds = %95, %71
  br label %97

97:                                               ; preds = %96, %54
  br label %98

98:                                               ; preds = %97, %37
  br label %99

99:                                               ; preds = %98
  %100 = load i32, i32* %4, align 4
  %101 = add nsw i32 %100, 1
  store i32 %101, i32* %4, align 4
  br label %17

102:                                              ; preds = %17
  br label %103

103:                                              ; preds = %102
  %104 = load i32, i32* %3, align 4
  %105 = add nsw i32 %104, 1
  store i32 %105, i32* %3, align 4
  br label %7

106:                                              ; preds = %7
  store i32 0, i32* %3, align 4
  br label %107

107:                                              ; preds = %129, %106
  %108 = load i32, i32* %3, align 4
  %109 = load i32, i32* %2, align 4
  %110 = icmp slt i32 %108, %109
  br i1 %110, label %111, label %132

111:                                              ; preds = %107
  %112 = load i32, i32* %3, align 4
  %113 = load i32, i32* %2, align 4
  %114 = sub nsw i32 %113, 1
  %115 = icmp ne i32 %112, %114
  br i1 %115, label %116, label %122

116:                                              ; preds = %111
  %117 = load i32, i32* %3, align 4
  %118 = sext i32 %117 to i64
  %119 = getelementptr inbounds [1000 x [300 x i8]], [1000 x [300 x i8]]* %5, i64 0, i64 %118
  %120 = getelementptr inbounds [300 x i8], [300 x i8]* %119, i64 0, i64 0
  %121 = call i32 (i8*, ...) @printf(i8* getelementptr inbounds ([4 x i8], [4 x i8]* @.str.2, i64 0, i64 0), i8* %120)
  br label %128

122:                                              ; preds = %111
  %123 = load i32, i32* %3, align 4
  %124 = sext i32 %123 to i64
  %125 = getelementptr inbounds [1000 x [300 x i8]], [1000 x [300 x i8]]* %5, i64 0, i64 %124
  %126 = getelementptr inbounds [300 x i8], [300 x i8]* %125, i64 0, i64 0
  %127 = call i32 (i8*, ...) @printf(i8* getelementptr inbounds ([3 x i8], [3 x i8]* @.str.1, i64 0, i64 0), i8* %126)
  br label %128

128:                                              ; preds = %122, %116
  br label %129

129:                                              ; preds = %128
  %130 = load i32, i32* %3, align 4
  %131 = add nsw i32 %130, 1
  store i32 %131, i32* %3, align 4
  br label %107

132:                                              ; preds = %107
  ret i32 0
}

declare dso_local i32 @__isoc99_scanf(i8*, ...) #1

declare dso_local i32 @printf(i8*, ...) #1


!llvm.module.flags = !{!0}
!llvm.ident = !{!1}

!0 = !{i32 1, !"wchar_size", i32 4}
!1 = !{!"clang version 10.0.0-4ubuntu1 "}
